; Function Attrs: nounwind uwtable
define internal fastcc i32 @imap_block_statemach(ptr noundef %0, ptr noundef %1, i1 noundef zeroext %2) unnamed_addr #0 {
  %4 = getelementptr inbounds nuw i8, ptr %1, i64 1088
  %5 = getelementptr inbounds nuw i8, ptr %1, i64 1328
  %6 = load i32, ptr %5, align 8, !tbaa !110
  %.not6 = icmp eq i32 %6, 0
  br i1 %.not6, label %._crit_edge, label %.lr.ph

.lr.ph:                                           ; preds = %3, %.lr.ph
  %7 = tail call i32 @Curl_pp_statemach(ptr noundef %0, ptr noundef nonnull %4, i1 noundef zeroext true, i1 noundef zeroext %2) #7
  %8 = load i32, ptr %5, align 8, !tbaa !110
  %9 = icmp ne i32 %8, 0
  %.not = icmp eq i32 %7, 0
  %10 = select i1 %9, i1 %.not, i1 false
  br i1 %10, label %.lr.ph, label %._crit_edge, !llvm.loop !131

._crit_edge:                                      ; preds = %.lr.ph, %3
  %.0.lcssa = phi i32 [ 0, %3 ], [ %7, %.lr.ph ]
  ret i32 %.0.lcssa
}